; ModuleID = 'source-C-CXX/48/423.cpp'
source_filename = "source-C-CXX/48/423.cpp"
target datalayout = "e-m:e-p270:32:32-p271:32:32-p272:64:64-i64:64-f80:128-n8:16:32:64-S128"
target triple = "x86_64-pc-linux-gnu"

%"class.std::ios_base::Init" = type { i8 }
%"class.std::basic_ostream" = type { i32 (...)**, %"class.std::basic_ios" }
%"class.std::basic_ios" = type { %"class.std::ios_base", %"class.std::basic_ostream"*, i8, i8, %"class.std::basic_streambuf"*, %"class.std::ctype"*, %"class.std::num_put"*, %"class.std::num_get"* }
%"class.std::ios_base" = type { i32 (...)**, i64, i64, i32, i32, i32, %"struct.std::ios_base::_Callback_list"*, %"struct.std::ios_base::_Words", [8 x %"struct.std::ios_base::_Words"], i32, %"struct.std::ios_base::_Words"*, %"class.std::locale" }
%"struct.std::ios_base::_Callback_list" = type { %"struct.std::ios_base::_Callback_list"*, void (i32, %"class.std::ios_base"*, i32)*, i32, i32 }
%"struct.std::ios_base::_Words" = type { i8*, i64 }
%"class.std::locale" = type { %"class.std::locale::_Impl"* }
%"class.std::locale::_Impl" = type { i32, %"class.std::locale::facet"**, i64, %"class.std::locale::facet"**, i8** }
%"class.std::locale::facet" = type <{ i32 (...)**, i32, [4 x i8] }>
%"class.std::basic_streambuf" = type { i32 (...)**, i8*, i8*, i8*, i8*, i8*, i8*, %"class.std::locale" }
%"class.std::ctype" = type <{ %"class.std::locale::facet.base", [4 x i8], %struct.__locale_struct*, i8, [7 x i8], i32*, i32*, i16*, i8, [256 x i8], [256 x i8], i8, [6 x i8] }>
%"class.std::locale::facet.base" = type <{ i32 (...)**, i32 }>
%struct.__locale_struct = type { [13 x %struct.__locale_data*], i16*, i32*, i32*, [13 x i8*] }
%struct.__locale_data = type opaque
%"class.std::num_put" = type { %"class.std::locale::facet.base", [4 x i8] }
%"class.std::num_get" = type { %"class.std::locale::facet.base", [4 x i8] }
%"class.std::basic_istream" = type { i32 (...)**, i64, %"class.std::basic_ios" }

@_ZStL8__ioinit = internal global %"class.std::ios_base::Init" zeroinitializer, align 1
@__dso_handle = external hidden global i8
@_ZSt4cout = external global %"class.std::basic_ostream", align 8
@_ZSt3cin = external global %"class.std::basic_istream", align 8
@llvm.global_ctors = appending global [1 x { i32, void ()*, i8* }] [{ i32, void ()*, i8* } { i32 65535, void ()* @_GLOBAL__sub_I_423.cpp, i8* null }]

declare void @_ZNSt8ios_base4InitC1Ev(%"class.std::ios_base::Init"* nonnull align 1 dereferenceable(1)) unnamed_addr #0

; Function Attrs: nounwind
declare void @_ZNSt8ios_base4InitD1Ev(%"class.std::ios_base::Init"* nonnull align 1 dereferenceable(1)) unnamed_addr #1

; Function Attrs: nofree nounwind
declare i32 @__cxa_atexit(void (i8*)*, i8*, i8*) local_unnamed_addr #2

; Function Attrs: mustprogress sspstrong uwtable
define dso_local void @_Z3zchPc(i8* nocapture readonly %0) local_unnamed_addr #3 {
  %2 = alloca i8, align 1
  %3 = call i64 @strlen(i8* noundef nonnull dereferenceable(1) %0) #9
  %4 = icmp ugt i64 %3, 2
  br i1 %4, label %5, label %111

5:                                                ; preds = %1, %108
  %6 = phi i64 [ %109, %108 ], [ 2, %1 ]
  %7 = lshr i64 %6, 1
  %8 = and i64 %7, 2147483647
  %9 = trunc i64 %6 to i32
  %10 = add i32 %9, -1
  br label %11

11:                                               ; preds = %103, %5
  %12 = phi i64 [ 0, %5 ], [ %104, %103 ]
  %13 = add nuw nsw i64 %12, %8
  %14 = trunc i64 %12 to i32
  %15 = shl i32 %14, 1
  %16 = add i32 %10, %15
  %17 = trunc i64 %12 to i32
  br label %18

18:                                               ; preds = %11, %29
  %19 = phi i64 [ %12, %11 ], [ %30, %29 ]
  %20 = phi i32 [ %17, %11 ], [ %31, %29 ]
  %21 = getelementptr inbounds i8, i8* %0, i64 %19
  %22 = load i8, i8* %21, align 1, !tbaa !5
  %23 = trunc i64 %19 to i32
  %24 = sub i32 %16, %23
  %25 = sext i32 %24 to i64
  %26 = getelementptr inbounds i8, i8* %0, i64 %25
  %27 = load i8, i8* %26, align 1, !tbaa !5
  %28 = icmp eq i8 %22, %27
  br i1 %28, label %29, label %33

29:                                               ; preds = %18
  %30 = add nuw i64 %19, 1
  %31 = add nuw nsw i32 %20, 1
  %32 = icmp ult i64 %30, %13
  br i1 %32, label %18, label %35, !llvm.loop !8

33:                                               ; preds = %18
  %34 = trunc i64 %19 to i32
  br label %35

35:                                               ; preds = %29, %33
  %36 = phi i32 [ %34, %33 ], [ %31, %29 ]
  %37 = zext i32 %36 to i64
  %38 = icmp eq i64 %13, %37
  br i1 %38, label %39, label %103

39:                                               ; preds = %35
  %40 = add nuw nsw i64 %12, %6
  br label %41

41:                                               ; preds = %39, %41
  %42 = phi i64 [ %12, %39 ], [ %46, %41 ]
  %43 = getelementptr inbounds i8, i8* %0, i64 %42
  %44 = load i8, i8* %43, align 1, !tbaa !5
  call void @llvm.lifetime.start.p0i8(i64 1, i8* nonnull %2)
  store i8 %44, i8* %2, align 1, !tbaa !5
  %45 = call nonnull align 8 dereferenceable(8) %"class.std::basic_ostream"* @_ZSt16__ostream_insertIcSt11char_traitsIcEERSt13basic_ostreamIT_T0_ES6_PKS3_l(%"class.std::basic_ostream"* nonnull align 8 dereferenceable(8) @_ZSt4cout, i8* nonnull %2, i64 1)
  call void @llvm.lifetime.end.p0i8(i64 1, i8* nonnull %2)
  %46 = add nuw i64 %42, 1
  %47 = icmp ult i64 %46, %40
  br i1 %47, label %41, label %48, !llvm.loop !10

48:                                               ; preds = %41
  %49 = load i8*, i8** bitcast (%"class.std::basic_ostream"* @_ZSt4cout to i8**), align 8, !tbaa !11
  %50 = getelementptr i8, i8* %49, i64 -24
  %51 = bitcast i8* %50 to i64*
  %52 = load i64, i64* %51, align 8
  %53 = add nsw i64 %52, 240
  %54 = getelementptr inbounds i8, i8* bitcast (%"class.std::basic_ostream"* @_ZSt4cout to i8*), i64 %53
  %55 = bitcast i8* %54 to %"class.std::ctype"**
  %56 = load %"class.std::ctype"*, %"class.std::ctype"** %55, align 8, !tbaa !13
  %57 = icmp eq %"class.std::ctype"* %56, null
  br i1 %57, label %58, label %59

58:                                               ; preds = %48
  call void @_ZSt16__throw_bad_castv() #10
  unreachable

59:                                               ; preds = %48
  %60 = getelementptr inbounds %"class.std::ctype", %"class.std::ctype"* %56, i64 0, i32 8
  %61 = load i8, i8* %60, align 8, !tbaa !17
  %62 = icmp eq i8 %61, 0
  br i1 %62, label %66, label %63

63:                                               ; preds = %59
  %64 = getelementptr inbounds %"class.std::ctype", %"class.std::ctype"* %56, i64 0, i32 9, i64 10
  %65 = load i8, i8* %64, align 1, !tbaa !5
  br label %72

66:                                               ; preds = %59
  call void @_ZNKSt5ctypeIcE13_M_widen_initEv(%"class.std::ctype"* nonnull align 8 dereferenceable(570) %56)
  %67 = bitcast %"class.std::ctype"* %56 to i8 (%"class.std::ctype"*, i8)***
  %68 = load i8 (%"class.std::ctype"*, i8)**, i8 (%"class.std::ctype"*, i8)*** %67, align 8, !tbaa !11
  %69 = getelementptr inbounds i8 (%"class.std::ctype"*, i8)*, i8 (%"class.std::ctype"*, i8)** %68, i64 6
  %70 = load i8 (%"class.std::ctype"*, i8)*, i8 (%"class.std::ctype"*, i8)** %69, align 8
  %71 = call signext i8 %70(%"class.std::ctype"* nonnull align 8 dereferenceable(570) %56, i8 signext 10)
  br label %72

72:                                               ; preds = %63, %66
  %73 = phi i8 [ %65, %63 ], [ %71, %66 ]
  %74 = call nonnull align 8 dereferenceable(8) %"class.std::basic_ostream"* @_ZNSo3putEc(%"class.std::basic_ostream"* nonnull align 8 dereferenceable(8) @_ZSt4cout, i8 signext %73)
  %75 = call nonnull align 8 dereferenceable(8) %"class.std::basic_ostream"* @_ZNSo5flushEv(%"class.std::basic_ostream"* nonnull align 8 dereferenceable(8) %74)
  %76 = load i8*, i8** bitcast (%"class.std::basic_ostream"* @_ZSt4cout to i8**), align 8, !tbaa !11
  %77 = getelementptr i8, i8* %76, i64 -24
  %78 = bitcast i8* %77 to i64*
  %79 = load i64, i64* %78, align 8
  %80 = add nsw i64 %79, 240
  %81 = getelementptr inbounds i8, i8* bitcast (%"class.std::basic_ostream"* @_ZSt4cout to i8*), i64 %80
  %82 = bitcast i8* %81 to %"class.std::ctype"**
  %83 = load %"class.std::ctype"*, %"class.std::ctype"** %82, align 8, !tbaa !13
  %84 = icmp eq %"class.std::ctype"* %83, null
  br i1 %84, label %85, label %86

85:                                               ; preds = %72
  call void @_ZSt16__throw_bad_castv() #10
  unreachable

86:                                               ; preds = %72
  %87 = getelementptr inbounds %"class.std::ctype", %"class.std::ctype"* %83, i64 0, i32 8
  %88 = load i8, i8* %87, align 8, !tbaa !17
  %89 = icmp eq i8 %88, 0
  br i1 %89, label %93, label %90

90:                                               ; preds = %86
  %91 = getelementptr inbounds %"class.std::ctype", %"class.std::ctype"* %83, i64 0, i32 9, i64 10
  %92 = load i8, i8* %91, align 1, !tbaa !5
  br label %99

93:                                               ; preds = %86
  call void @_ZNKSt5ctypeIcE13_M_widen_initEv(%"class.std::ctype"* nonnull align 8 dereferenceable(570) %83)
  %94 = bitcast %"class.std::ctype"* %83 to i8 (%"class.std::ctype"*, i8)***
  %95 = load i8 (%"class.std::ctype"*, i8)**, i8 (%"class.std::ctype"*, i8)*** %94, align 8, !tbaa !11
  %96 = getelementptr inbounds i8 (%"class.std::ctype"*, i8)*, i8 (%"class.std::ctype"*, i8)** %95, i64 6
  %97 = load i8 (%"class.std::ctype"*, i8)*, i8 (%"class.std::ctype"*, i8)** %96, align 8
  %98 = call signext i8 %97(%"class.std::ctype"* nonnull align 8 dereferenceable(570) %83, i8 signext 10)
  br label %99

99:                                               ; preds = %90, %93
  %100 = phi i8 [ %92, %90 ], [ %98, %93 ]
  %101 = call nonnull align 8 dereferenceable(8) %"class.std::basic_ostream"* @_ZNSo3putEc(%"class.std::basic_ostream"* nonnull align 8 dereferenceable(8) @_ZSt4cout, i8 signext %100)
  %102 = call nonnull align 8 dereferenceable(8) %"class.std::basic_ostream"* @_ZNSo5flushEv(%"class.std::basic_ostream"* nonnull align 8 dereferenceable(8) %101)
  br label %103

103:                                              ; preds = %35, %99
  %104 = add nuw i64 %12, 1
  %105 = call i64 @strlen(i8* noundef nonnull dereferenceable(1) %0) #9
  %106 = sub i64 %105, %6
  %107 = icmp ugt i64 %106, %12
  br i1 %107, label %11, label %108, !llvm.loop !19

108:                                              ; preds = %103
  %109 = add nuw i64 %6, 1
  %110 = icmp ugt i64 %105, %109
  br i1 %110, label %5, label %111, !llvm.loop !20

111:                                              ; preds = %108, %1
  ret void
}

; Function Attrs: argmemonly mustprogress nofree nosync nounwind willreturn
declare void @llvm.lifetime.start.p0i8(i64 immarg, i8* nocapture) #4

; Function Attrs: argmemonly mustprogress nofree nounwind readonly willreturn
declare i64 @strlen(i8* nocapture) local_unnamed_addr #5

; Function Attrs: argmemonly mustprogress nofree nosync nounwind willreturn
declare void @llvm.lifetime.end.p0i8(i64 immarg, i8* nocapture) #4

; Function Attrs: mustprogress norecurse sspstrong uwtable
define dso_local i32 @main() local_unnamed_addr #6 {
  %1 = alloca [100000 x i8], align 16
  %2 = getelementptr inbounds [100000 x i8], [100000 x i8]* %1, i64 0, i64 0
  call void @llvm.lifetime.start.p0i8(i64 100000, i8* nonnull %2) #11
  %3 = load i8*, i8** bitcast (%"class.std::basic_istream"* @_ZSt3cin to i8**), align 8, !tbaa !11
  %4 = getelementptr i8, i8* %3, i64 -24
  %5 = bitcast i8* %4 to i64*
  %6 = load i64, i64* %5, align 8
  %7 = add nsw i64 %6, 240
  %8 = getelementptr inbounds i8, i8* bitcast (%"class.std::basic_istream"* @_ZSt3cin to i8*), i64 %7
  %9 = bitcast i8* %8 to %"class.std::ctype"**
  %10 = load %"class.std::ctype"*, %"class.std::ctype"** %9, align 8, !tbaa !13
  %11 = icmp eq %"class.std::ctype"* %10, null
  br i1 %11, label %12, label %13

12:                                               ; preds = %0
  tail call void @_ZSt16__throw_bad_castv() #10
  unreachable

13:                                               ; preds = %0
  %14 = getelementptr inbounds %"class.std::ctype", %"class.std::ctype"* %10, i64 0, i32 8
  %15 = load i8, i8* %14, align 8, !tbaa !17
  %16 = icmp eq i8 %15, 0
  br i1 %16, label %20, label %17

17:                                               ; preds = %13
  %18 = getelementptr inbounds %"class.std::ctype", %"class.std::ctype"* %10, i64 0, i32 9, i64 10
  %19 = load i8, i8* %18, align 1, !tbaa !5
  br label %26

20:                                               ; preds = %13
  tail call void @_ZNKSt5ctypeIcE13_M_widen_initEv(%"class.std::ctype"* nonnull align 8 dereferenceable(570) %10)
  %21 = bitcast %"class.std::ctype"* %10 to i8 (%"class.std::ctype"*, i8)***
  %22 = load i8 (%"class.std::ctype"*, i8)**, i8 (%"class.std::ctype"*, i8)*** %21, align 8, !tbaa !11
  %23 = getelementptr inbounds i8 (%"class.std::ctype"*, i8)*, i8 (%"class.std::ctype"*, i8)** %22, i64 6
  %24 = load i8 (%"class.std::ctype"*, i8)*, i8 (%"class.std::ctype"*, i8)** %23, align 8
  %25 = tail call signext i8 %24(%"class.std::ctype"* nonnull align 8 dereferenceable(570) %10, i8 signext 10)
  br label %26

26:                                               ; preds = %17, %20
  %27 = phi i8 [ %19, %17 ], [ %25, %20 ]
  %28 = call nonnull align 8 dereferenceable(16) %"class.std::basic_istream"* @_ZNSi7getlineEPclc(%"class.std::basic_istream"* nonnull align 8 dereferenceable(16) @_ZSt3cin, i8* nonnull %2, i64 100000, i8 signext %27)
  call void @_Z3zchPc(i8* nonnull %2)
  call void @llvm.lifetime.end.p0i8(i64 100000, i8* nonnull %2) #11
  ret i32 0
}

declare nonnull align 8 dereferenceable(8) %"class.std::basic_ostream"* @_ZSt16__ostream_insertIcSt11char_traitsIcEERSt13basic_ostreamIT_T0_ES6_PKS3_l(%"class.std::basic_ostream"* nonnull align 8 dereferenceable(8), i8*, i64) local_unnamed_addr #0

declare nonnull align 8 dereferenceable(8) %"class.std::basic_ostream"* @_ZNSo3putEc(%"class.std::basic_ostream"* nonnull align 8 dereferenceable(8), i8 signext) local_unnamed_addr #0

declare nonnull align 8 dereferenceable(8) %"class.std::basic_ostream"* @_ZNSo5flushEv(%"class.std::basic_ostream"* nonnull align 8 dereferenceable(8)) local_unnamed_addr #0

; Function Attrs: noreturn
declare void @_ZSt16__throw_bad_castv() local_unnamed_addr #7

declare void @_ZNKSt5ctypeIcE13_M_widen_initEv(%"class.std::ctype"* nonnull align 8 dereferenceable(570)) local_unnamed_addr #0

declare nonnull align 8 dereferenceable(16) %"class.std::basic_istream"* @_ZNSi7getlineEPclc(%"class.std::basic_istream"* nonnull align 8 dereferenceable(16), i8*, i64, i8 signext) local_unnamed_addr #0

; Function Attrs: sspstrong uwtable
define internal void @_GLOBAL__sub_I_423.cpp() #8 section ".text.startup" {
  tail call void @_ZNSt8ios_base4InitC1Ev(%"class.std::ios_base::Init"* nonnull align 1 dereferenceable(1) @_ZStL8__ioinit)
  %1 = tail call i32 @__cxa_atexit(void (i8*)* bitcast (void (%"class.std::ios_base::Init"*)* @_ZNSt8ios_base4InitD1Ev to void (i8*)*), i8* getelementptr inbounds (%"class.std::ios_base::Init", %"class.std::ios_base::Init"* @_ZStL8__ioinit, i64 0, i32 0), i8* nonnull @__dso_handle) #11
  ret void
}


!llvm.module.flags = !{!0, !1, !2, !3}
!llvm.ident = !{!4}

!0 = !{i32 1, !"wchar_size", i32 4}
!1 = !{i32 7, !"PIC Level", i32 2}
!2 = !{i32 7, !"PIE Level", i32 2}
!3 = !{i32 7, !"uwtable", i32 1}
!4 = !{!"clang version 13.0.0"}
!5 = !{!6, !6, i64 0}
!6 = !{!"omnipotent char", !7, i64 0}
!7 = !{!"Simple C++ TBAA"}
!8 = distinct !{!8, !9}
!9 = !{!"llvm.loop.mustprogress"}
!10 = distinct !{!10, !9}
!11 = !{!12, !12, i64 0}
!12 = !{!"vtable pointer", !7, i64 0}
!13 = !{!14, !15, i64 240}
!14 = !{!"_ZTSSt9basic_iosIcSt11char_traitsIcEE", !15, i64 216, !6, i64 224, !16, i64 225, !15, i64 232, !15, i64 240, !15, i64 248, !15, i64 256}
!15 = !{!"any pointer", !6, i64 0}
!16 = !{!"bool", !6, i64 0}
!17 = !{!18, !6, i64 56}
!18 = !{!"_ZTSSt5ctypeIcE", !15, i64 16, !16, i64 24, !15, i64 32, !15, i64 40, !15, i64 48, !6, i64 56, !6, i64 57, !6, i64 313, !6, i64 569}
!19 = distinct !{!19, !9}
!20 = distinct !{!20, !9}
